target datalayout = "e-m:e-p270:32:32-p271:32:32-p272:64:64-i64:64-i128:128-f80:128-n8:16:32:64-S128"
target triple = "x86_64-pc-linux-gnu"

%struct.ZSTD_customMem = type { ptr, ptr, ptr }
%struct.ZSTD_frameParameters = type { i32, i32, i32 }
%struct.ZSTD_compressionParameters = type { i32, i32, i32, i32, i32, i32, i32 }
%struct.ZSTD_CCtx_params_s = type { i32, %struct.ZSTD_compressionParameters, %struct.ZSTD_frameParameters, i32, i32, i64, i32, i32, i32, i32, i64, i32, i32, %struct.ldmParams_t, i32, i32, i32, i32, i32, i32, i32, i32, %struct.ZSTD_customMem, i32, i32, i32, i64, i32 }
%struct.ldmParams_t = type { i32, i32, i32, i32, i32, i32 }

; Function Attrs: nounwind uwtable
define internal i32 @ZSTD_rowMatchFinderSupported(i32 noundef %0) #0 {
  %2 = alloca i32, align 4
  store i32 %0, ptr %2, align 4
  %3 = load i32, ptr %2, align 4
  %4 = icmp uge i32 %3, 3
  br i1 %4, label %5, label %8

5:                                                ; preds = %1
  %6 = load i32, ptr %2, align 4
  %7 = icmp ule i32 %6, 5
  br label %8

8:                                                ; preds = %5, %1
  %9 = phi i1 [ false, %1 ], [ %7, %5 ]
  %10 = zext i1 %9 to i32
  ret i32 %10
}

; Function Attrs: nounwind uwtable
define internal i32 @ZSTD_resolveRowMatchFinderMode(i32 noundef %0, ptr noundef %1) #0 {
  %3 = alloca i32, align 4
  %4 = alloca i32, align 4
  %5 = alloca ptr, align 8
  %6 = alloca i32, align 4
  store i32 %0, ptr %4, align 4
  store ptr %1, ptr %5, align 8
  store i32 1, ptr %6, align 4
  %7 = load i32, ptr %4, align 4
  %8 = icmp ne i32 %7, 0
  br i1 %8, label %9, label %11

9:                                                ; preds = %2
  %10 = load i32, ptr %4, align 4
  store i32 %10, ptr %3, align 4
  br label %27

11:                                               ; preds = %2
  store i32 2, ptr %4, align 4
  %12 = load ptr, ptr %5, align 8
  %13 = getelementptr inbounds %struct.ZSTD_compressionParameters, ptr %12, i32 0, i32 6
  %14 = load i32, ptr %13, align 4
  %15 = call i32 @ZSTD_rowMatchFinderSupported(i32 noundef %14)
  %16 = icmp ne i32 %15, 0
  br i1 %16, label %19, label %17

17:                                               ; preds = %11
  %18 = load i32, ptr %4, align 4
  store i32 %18, ptr %3, align 4
  br label %27

19:                                               ; preds = %11
  %20 = load ptr, ptr %5, align 8
  %21 = getelementptr inbounds %struct.ZSTD_compressionParameters, ptr %20, i32 0, i32 0
  %22 = load i32, ptr %21, align 4
  %23 = icmp ugt i32 %22, 14
  br i1 %23, label %24, label %25

24:                                               ; preds = %19
  store i32 1, ptr %4, align 4
  br label %25

25:                                               ; preds = %24, %19
  %26 = load i32, ptr %4, align 4
  store i32 %26, ptr %3, align 4
  br label %27

27:                                               ; preds = %25, %17, %9
  %28 = load i32, ptr %3, align 4
  ret i32 %28
}

; Function Attrs: nounwind uwtable
define dso_local i64 @ZSTD_estimateCCtxSize_usingCCtxParams(ptr noundef %0) #0 {
  %2 = alloca i64, align 8
  %3 = alloca ptr, align 8
  %4 = alloca %struct.ZSTD_compressionParameters, align 4
  %5 = alloca i32, align 4
  store ptr %0, ptr %3, align 8
  %6 = load ptr, ptr %3, align 8
  call void @ZSTD_getCParamsFromCCtxParams(ptr dead_on_unwind writable sret(%struct.ZSTD_compressionParameters) align 4 %4, ptr noundef %6, i64 noundef -1, i64 noundef 0, i32 noundef 0)
  %7 = load ptr, ptr %3, align 8
  %8 = getelementptr inbounds %struct.ZSTD_CCtx_params_s, ptr %7, i32 0, i32 20
  %9 = load i32, ptr %8, align 8
  %10 = call i32 @ZSTD_resolveRowMatchFinderMode(i32 noundef %9, ptr noundef %4)
  store i32 %10, ptr %5, align 4
  %11 = load ptr, ptr %3, align 8
  %12 = getelementptr inbounds %struct.ZSTD_CCtx_params_s, ptr %11, i32 0, i32 9
  %13 = load i32, ptr %12, align 4
  %14 = icmp sgt i32 %13, 0
  br i1 %14, label %15, label %16

15:                                               ; preds = %1
  store i64 -1, ptr %2, align 8
  br label %27

16:                                               ; preds = %1
  %17 = load ptr, ptr %3, align 8
  %18 = getelementptr inbounds %struct.ZSTD_CCtx_params_s, ptr %17, i32 0, i32 13
  %19 = load i32, ptr %5, align 4
  %20 = load ptr, ptr %3, align 8
  %21 = getelementptr inbounds %struct.ZSTD_CCtx_params_s, ptr %20, i32 0, i32 25
  %22 = load i32, ptr %21, align 8
  %23 = load ptr, ptr %3, align 8
  %24 = getelementptr inbounds %struct.ZSTD_CCtx_params_s, ptr %23, i32 0, i32 26
  %25 = load i64, ptr %24, align 8
  %26 = call i64 @ZSTD_estimateCCtxSize_usingCCtxParams_internal(ptr noundef %4, ptr noundef %18, i32 noundef 1, i32 noundef %19, i64 noundef 0, i64 noundef 0, i64 noundef -1, i32 noundef %22, i64 noundef %25)
  store i64 %26, ptr %2, align 8
  br label %27

27:                                               ; preds = %16, %15
  %28 = load i64, ptr %2, align 8
  ret i64 %28
}