; Function Attrs: nounwind uwtable
define dso_local i64 @ZSTD_estimateCCtxSize_usingCCtxParams(ptr noundef readonly captures(none) %0) local_unnamed_addr #1 {
  %2 = alloca %struct.ZSTD_compressionParameters, align 4
  call void @ZSTD_getCParamsFromCCtxParams(ptr dead_on_unwind nonnull writable sret(%struct.ZSTD_compressionParameters) align 4 %2, ptr noundef %0, i64 noundef -1, i64 noundef 0, i32 noundef 0)
  %3 = getelementptr inbounds nuw i8, ptr %0, i64 144
  %4 = load i32, ptr %3, align 8
  %.not.i = icmp eq i32 %4, 0
  br i1 %.not.i, label %5, label %ZSTD_resolveRowMatchFinderMode.exit

5:                                                ; preds = %1
  %6 = getelementptr inbounds nuw i8, ptr %2, i64 24
  %7 = load i32, ptr %6, align 4
  %8 = add i32 %7, -6
  %9 = icmp ult i32 %8, -3
  br i1 %9, label %ZSTD_resolveRowMatchFinderMode.exit, label %10

10:                                               ; preds = %5
  %11 = load i32, ptr %2, align 4
  %12 = icmp ugt i32 %11, 14
  %spec.select.i = select i1 %12, i32 1, i32 2
  br label %ZSTD_resolveRowMatchFinderMode.exit

ZSTD_resolveRowMatchFinderMode.exit:              ; preds = %1, %5, %10
  %.0.i = phi i32 [ %spec.select.i, %10 ], [ %4, %1 ], [ 2, %5 ]
  %13 = getelementptr inbounds nuw i8, ptr %0, i64 76
  %14 = load i32, ptr %13, align 4
  %15 = icmp sgt i32 %14, 0
  br i1 %15, label %23, label %16

16:                                               ; preds = %ZSTD_resolveRowMatchFinderMode.exit
  %17 = getelementptr inbounds nuw i8, ptr %0, i64 96
  %18 = getelementptr inbounds nuw i8, ptr %0, i64 184
  %19 = load i32, ptr %18, align 8
  %20 = getelementptr inbounds nuw i8, ptr %0, i64 192
  %21 = load i64, ptr %20, align 8
  %22 = call fastcc i64 @ZSTD_estimateCCtxSize_usingCCtxParams_internal(ptr noundef nonnull %2, ptr noundef nonnull %17, i32 noundef 1, i32 noundef %.0.i, i64 noundef 0, i64 noundef 0, i64 noundef -1, i32 noundef %19, i64 noundef %21)
  br label %23

23:                                               ; preds = %ZSTD_resolveRowMatchFinderMode.exit, %16
  %.0 = phi i64 [ %22, %16 ], [ -1, %ZSTD_resolveRowMatchFinderMode.exit ]
  ret i64 %.0
}